; Function Attrs: mustprogress uwtable
define hidden void @_ZN2cv3ccm8RGBBase_4initEv(ptr noundef nonnull align 8 dereferenceable(440) %0) local_unnamed_addr #3 align 2 {
  %2 = load ptr, ptr %0, align 8, !tbaa !12
  %3 = getelementptr inbounds nuw i8, ptr %2, i64 48
  %4 = load ptr, ptr %3, align 8
  tail call void %4(ptr noundef nonnull align 8 dereferenceable(440) %0)
  %5 = load ptr, ptr %0, align 8, !tbaa !12
  %6 = getelementptr inbounds nuw i8, ptr %5, i64 72
  %7 = load ptr, ptr %6, align 8
  tail call void %7(ptr noundef nonnull align 8 dereferenceable(440) %0)
  %8 = load ptr, ptr %0, align 8, !tbaa !12
  %9 = getelementptr inbounds nuw i8, ptr %8, i64 56
  %10 = load ptr, ptr %9, align 8
  tail call void %10(ptr noundef nonnull align 8 dereferenceable(440) %0)
  %11 = load ptr, ptr %0, align 8, !tbaa !12
  %12 = getelementptr inbounds nuw i8, ptr %11, i64 64
  %13 = load ptr, ptr %12, align 8
  tail call void %13(ptr noundef nonnull align 8 dereferenceable(440) %0)
  ret void
}